target datalayout = "e-m:e-p270:32:32-p271:32:32-p272:64:64-i64:64-i128:128-f80:128-n8:16:32:64-S128"
target triple = "x86_64-pc-linux-gnu"

%"class.cv::Size_.8" = type { i32, i32 }
%"class.cv::_InputArray" = type { i32, ptr, %"class.cv::Size_.8" }
%"class.cv::Scalar_" = type { %"class.cv::Vec" }
%"class.cv::Vec" = type { %"class.cv::Matx" }
%"class.cv::Matx" = type { [4 x double] }

; Function Attrs: inlinehint mustprogress nounwind uwtable
define linkonce_odr hidden void @_ZN2cv11_InputArray4initEiPKv(ptr noundef nonnull align 8 dereferenceable(24) %0, i32 noundef %1, ptr noundef %2) #6 comdat align 2 {
  %4 = alloca ptr, align 8
  %5 = alloca i32, align 4
  %6 = alloca ptr, align 8
  store ptr %0, ptr %4, align 8, !tbaa !69
  store i32 %1, ptr %5, align 4, !tbaa !71
  store ptr %2, ptr %6, align 8, !tbaa !347
  %7 = load ptr, ptr %4, align 8
  %8 = load i32, ptr %5, align 4, !tbaa !71
  %9 = getelementptr inbounds nuw %"class.cv::_InputArray", ptr %7, i32 0, i32 0
  store i32 %8, ptr %9, align 8, !tbaa !348
  %10 = load ptr, ptr %6, align 8, !tbaa !347
  %11 = getelementptr inbounds nuw %"class.cv::_InputArray", ptr %7, i32 0, i32 1
  store ptr %10, ptr %11, align 8, !tbaa !72
  ret void
}

; Function Attrs: inlinehint mustprogress nounwind uwtable
define linkonce_odr hidden void @_ZN2cv5Size_IiEC2Ev(ptr noundef nonnull align 4 dereferenceable(8) %0) unnamed_addr #6 comdat align 2 {
  %2 = alloca ptr, align 8
  store ptr %0, ptr %2, align 8, !tbaa !33
  %3 = load ptr, ptr %2, align 8
  %4 = getelementptr inbounds nuw %"class.cv::Size_.8", ptr %3, i32 0, i32 0
  store i32 0, ptr %4, align 4, !tbaa !35
  %5 = getelementptr inbounds nuw %"class.cv::Size_.8", ptr %3, i32 0, i32 1
  store i32 0, ptr %5, align 4, !tbaa !38
  ret void
}

; Function Attrs: inlinehint mustprogress nounwind uwtable
define linkonce_odr hidden void @_ZN2cv11_InputArrayD2Ev(ptr noundef nonnull align 8 dereferenceable(24) %0) unnamed_addr #6 comdat align 2 {
  %2 = alloca ptr, align 8
  store ptr %0, ptr %2, align 8, !tbaa !69
  ret void
}

; Function Attrs: inlinehint mustprogress nounwind uwtable
define linkonce_odr hidden noundef nonnull align 8 dereferenceable(8) ptr @_ZN2cv3VecIdLi4EEixEi(ptr noundef nonnull align 8 dereferenceable(32) %0, i32 noundef %1) #6 comdat align 2 {
  %3 = alloca ptr, align 8
  %4 = alloca i32, align 4
  store ptr %0, ptr %3, align 8, !tbaa !77
  store i32 %1, ptr %4, align 4, !tbaa !71
  %5 = load ptr, ptr %3, align 8
  %6 = getelementptr inbounds nuw %"class.cv::Matx", ptr %5, i32 0, i32 0
  %7 = load i32, ptr %4, align 4, !tbaa !71
  %8 = sext i32 %7 to i64
  %9 = getelementptr inbounds [4 x double], ptr %6, i64 0, i64 %8
  ret ptr %9
}

; Function Attrs: inlinehint mustprogress uwtable
define linkonce_odr hidden void @_ZN2cv11_InputArrayC2ERKNS_3MatE(ptr noundef nonnull align 8 dereferenceable(24) %0, ptr noundef nonnull align 8 dereferenceable(96) %1) unnamed_addr #5 comdat align 2 {
  %3 = alloca ptr, align 8
  %4 = alloca ptr, align 8
  store ptr %0, ptr %3, align 8, !tbaa !69
  store ptr %1, ptr %4, align 8, !tbaa !74
  %5 = load ptr, ptr %3, align 8
  %6 = getelementptr inbounds nuw %"class.cv::_InputArray", ptr %5, i32 0, i32 2
  call void @_ZN2cv5Size_IiEC2Ev(ptr noundef nonnull align 4 dereferenceable(8) %6)
  %7 = load ptr, ptr %4, align 8, !tbaa !74
  call void @_ZN2cv11_InputArray4initEiPKv(ptr noundef nonnull align 8 dereferenceable(24) %5, i32 noundef 16842752, ptr noundef %7)
  ret void
}

; Function Attrs: mustprogress uwtable
define hidden noundef zeroext i1 @_ZN2cv8tracking4impl15TrackerCSRTImpl15check_mask_areaERKNS_3MatEd(ptr noundef nonnull align 8 dereferenceable(1544) %0, ptr noundef nonnull align 8 dereferenceable(96) %1, double noundef %2) #4 align 2 personality ptr @__gxx_personality_v0 {
  %4 = alloca i1, align 1
  %5 = alloca ptr, align 8
  %6 = alloca ptr, align 8
  %7 = alloca double, align 8
  %8 = alloca double, align 8
  %9 = alloca double, align 8
  %10 = alloca %"class.cv::Scalar_", align 8
  %11 = alloca %"class.cv::_InputArray", align 8
  %12 = alloca ptr, align 8
  %13 = alloca i32, align 4
  %14 = alloca i32, align 4
  store ptr %0, ptr %5, align 8, !tbaa !3
  store ptr %1, ptr %6, align 8, !tbaa !74
  store double %2, ptr %7, align 8, !tbaa !75
  call void @llvm.lifetime.start.p0(i64 8, ptr %8) #3
  store double 5.000000e-02, ptr %8, align 8, !tbaa !75
  call void @llvm.lifetime.start.p0(i64 8, ptr %9) #3
  call void @llvm.lifetime.start.p0(i64 32, ptr %10) #3
  call void @llvm.lifetime.start.p0(i64 24, ptr %11) #3
  %15 = load ptr, ptr %6, align 8, !tbaa !74
  call void @_ZN2cv11_InputArrayC2ERKNS_3MatE(ptr noundef nonnull align 8 dereferenceable(24) %11, ptr noundef nonnull align 8 dereferenceable(96) %15)
  invoke void @_ZN2cv3sumERKNS_11_InputArrayE(ptr dead_on_unwind writable sret(%"class.cv::Scalar_") align 8 %10, ptr noundef nonnull align 8 dereferenceable(24) %11)
          to label %16 unwind label %26

16:                                               ; preds = %3
  %17 = invoke noundef nonnull align 8 dereferenceable(8) ptr @_ZN2cv3VecIdLi4EEixEi(ptr noundef nonnull align 8 dereferenceable(32) %10, i32 noundef 0)
          to label %18 unwind label %26

18:                                               ; preds = %16
  %19 = load double, ptr %17, align 8, !tbaa !75
  call void @_ZN2cv11_InputArrayD2Ev(ptr noundef nonnull align 8 dereferenceable(24) %11) #3
  call void @llvm.lifetime.end.p0(i64 24, ptr %11) #3
  call void @llvm.lifetime.end.p0(i64 32, ptr %10) #3
  store double %19, ptr %9, align 8, !tbaa !75
  %20 = load double, ptr %9, align 8, !tbaa !75
  %21 = load double, ptr %8, align 8, !tbaa !75
  %22 = load double, ptr %7, align 8, !tbaa !75
  %23 = fmul double %21, %22
  %24 = fcmp olt double %20, %23
  br i1 %24, label %25, label %30

25:                                               ; preds = %18
  store i1 false, ptr %4, align 1
  store i32 1, ptr %14, align 4
  br label %31

26:                                               ; preds = %16, %3
  %27 = landingpad { ptr, i32 }
          cleanup
  %28 = extractvalue { ptr, i32 } %27, 0
  store ptr %28, ptr %12, align 8
  %29 = extractvalue { ptr, i32 } %27, 1
  store i32 %29, ptr %13, align 4
  call void @_ZN2cv11_InputArrayD2Ev(ptr noundef nonnull align 8 dereferenceable(24) %11) #3
  call void @llvm.lifetime.end.p0(i64 24, ptr %11) #3
  call void @llvm.lifetime.end.p0(i64 32, ptr %10) #3
  call void @llvm.lifetime.end.p0(i64 8, ptr %9) #3
  call void @llvm.lifetime.end.p0(i64 8, ptr %8) #3
  br label %33

30:                                               ; preds = %18
  store i1 true, ptr %4, align 1
  store i32 1, ptr %14, align 4
  br label %31

31:                                               ; preds = %30, %25
  call void @llvm.lifetime.end.p0(i64 8, ptr %9) #3
  call void @llvm.lifetime.end.p0(i64 8, ptr %8) #3
  %32 = load i1, ptr %4, align 1
  ret i1 %32

33:                                               ; preds = %26
  %34 = load ptr, ptr %12, align 8
  %35 = load i32, ptr %13, align 4
  %36 = insertvalue { ptr, i32 } poison, ptr %34, 0
  %37 = insertvalue { ptr, i32 } %36, i32 %35, 1
  resume { ptr, i32 } %37
}