; Function Attrs: mustprogress uwtable
define hidden noundef zeroext i1 @_ZN2cv8tracking4impl15TrackerCSRTImpl15check_mask_areaERKNS_3MatEd(ptr noundef nonnull readnone align 8 captures(none) dereferenceable(1544) %0, ptr noundef nonnull align 8 dereferenceable(96) %1, double noundef %2) local_unnamed_addr #3 align 2 personality ptr @__gxx_personality_v0 {
  %4 = alloca %"class.cv::Scalar_", align 8
  %5 = alloca %"class.cv::_InputArray", align 8
  call void @llvm.lifetime.start.p0(i64 32, ptr nonnull %4) #27
  call void @llvm.lifetime.start.p0(i64 24, ptr nonnull %5) #27
  %6 = getelementptr inbounds nuw i8, ptr %5, i64 16
  store i32 0, ptr %6, align 8, !tbaa !21
  %7 = getelementptr inbounds nuw i8, ptr %5, i64 20
  store i32 0, ptr %7, align 4, !tbaa !24
  store i32 16842752, ptr %5, align 8, !tbaa !51
  %8 = getelementptr inbounds nuw i8, ptr %5, i64 8
  store ptr %1, ptr %8, align 8, !tbaa !49
  call void @_ZN2cv3sumERKNS_11_InputArrayE(ptr dead_on_unwind nonnull writable sret(%"class.cv::Scalar_") align 8 %4, ptr noundef nonnull align 8 dereferenceable(24) %5)
  %9 = load double, ptr %4, align 8, !tbaa !52
  call void @llvm.lifetime.end.p0(i64 24, ptr nonnull %5) #27
  call void @llvm.lifetime.end.p0(i64 32, ptr nonnull %4) #27
  %10 = fmul double %2, 5.000000e-02
  %11 = fcmp uge double %9, %10
  ret i1 %11
}